; Function Attrs: mustprogress uwtable
define void @_ZN6icu_7714ResourceBundle13getNextStringEPPKcR10UErrorCode(ptr dead_on_unwind noalias writable sret(%"class.icu_77::UnicodeString") align 8 %0, ptr noundef nonnull readonly align 8 captures(none) dereferenceable(24) %1, ptr noundef %2, ptr noundef nonnull align 4 dereferenceable(4) %3) local_unnamed_addr #1 align 2 personality ptr @__gxx_personality_v0 {
  %5 = alloca i32, align 4
  %6 = alloca %"class.icu_77::ConstChar16Ptr", align 8
  call void @llvm.lifetime.start.p0(i64 4, ptr nonnull %5) #8
  store i32 0, ptr %5, align 4, !tbaa !20
  %7 = getelementptr inbounds nuw i8, ptr %1, i64 8
  %8 = load ptr, ptr %7, align 8, !tbaa !17
  %9 = call ptr @ures_getNextString_77(ptr noundef %8, ptr noundef nonnull %5, ptr noundef %2, ptr noundef nonnull %3)
  store ptr %9, ptr %6, align 8, !tbaa !21
  %10 = load i32, ptr %5, align 4, !tbaa !20
  invoke void @_ZN6icu_7713UnicodeStringC1EaNS_14ConstChar16PtrEi(ptr noundef nonnull align 8 dereferenceable(64) %0, i8 noundef signext 1, ptr noundef nonnull %6, i32 noundef %10)
          to label %11 unwind label %13

11:                                               ; preds = %4
  %12 = load ptr, ptr %6, align 8, !tbaa !21
  call void asm sideeffect "", "rm,~{memory},~{dirflag},~{fpsr},~{flags}"(ptr %12) #8, !srcloc !24
  call void @llvm.lifetime.end.p0(i64 4, ptr nonnull %5) #8
  ret void

13:                                               ; preds = %4
  %14 = landingpad { ptr, i32 }
          cleanup
  %15 = load ptr, ptr %6, align 8, !tbaa !21
  call void asm sideeffect "", "rm,~{memory},~{dirflag},~{fpsr},~{flags}"(ptr %15) #8, !srcloc !24
  call void @llvm.lifetime.end.p0(i64 4, ptr nonnull %5) #8
  resume { ptr, i32 } %14
}